target datalayout = "e-m:e-p270:32:32-p271:32:32-p272:64:64-i64:64-i128:128-f80:128-n8:16:32:64-S128"
target triple = "x86_64-pc-linux-gnu"

%struct.PQExpBufferData = type { ptr, i64, i64 }

@if_exists = internal global i32 0, align 4
@role_catalog = internal global [10 x i8] zeroinitializer, align 1
@OPF = internal global ptr null, align 8
@server_version = internal global i32 0, align 4
@.str.120 = private unnamed_addr constant [1 x i8] zeroinitializer, align 1
@.str.180 = private unnamed_addr constant [58 x i8] c"SELECT rolname FROM %s WHERE rolname !~ '^pg_' ORDER BY 1\00", align 1
@.str.181 = private unnamed_addr constant [34 x i8] c"SELECT rolname FROM %s ORDER BY 1\00", align 1
@.str.182 = private unnamed_addr constant [8 x i8] c"rolname\00", align 1
@.str.183 = private unnamed_addr constant [22 x i8] c"--\0A-- Drop roles\0A--\0A\0A\00", align 1
@.str.184 = private unnamed_addr constant [17 x i8] c"DROP ROLE %s%s;\0A\00", align 1
@.str.185 = private unnamed_addr constant [11 x i8] c"IF EXISTS \00", align 1
@.str.186 = private unnamed_addr constant [3 x i8] c"\0A\0A\00", align 1

; Function Attrs: nounwind uwtable
define internal void @dropRoles(ptr noundef %0) #0 {
  %2 = alloca ptr, align 8
  %3 = alloca ptr, align 8
  %4 = alloca ptr, align 8
  %5 = alloca i32, align 4
  %6 = alloca i32, align 4
  %7 = alloca ptr, align 8
  store ptr %0, ptr %2, align 8
  call void @llvm.lifetime.start.p0(i64 8, ptr %3) #11
  %8 = call ptr @createPQExpBuffer()
  store ptr %8, ptr %3, align 8
  call void @llvm.lifetime.start.p0(i64 8, ptr %4) #11
  call void @llvm.lifetime.start.p0(i64 4, ptr %5) #11
  call void @llvm.lifetime.start.p0(i64 4, ptr %6) #11
  %9 = load i32, ptr @server_version, align 4
  %10 = icmp sge i32 %9, 90600
  br i1 %10, label %11, label %13

11:                                               ; preds = %1
  %12 = load ptr, ptr %3, align 8
  call void (ptr, ptr, ...) @printfPQExpBuffer(ptr noundef %12, ptr noundef @.str.180, ptr noundef @role_catalog)
  br label %15

13:                                               ; preds = %1
  %14 = load ptr, ptr %3, align 8
  call void (ptr, ptr, ...) @printfPQExpBuffer(ptr noundef %14, ptr noundef @.str.181, ptr noundef @role_catalog)
  br label %15

15:                                               ; preds = %13, %11
  %16 = load ptr, ptr %2, align 8
  %17 = load ptr, ptr %3, align 8
  %18 = getelementptr inbounds nuw %struct.PQExpBufferData, ptr %17, i32 0, i32 0
  %19 = load ptr, ptr %18, align 8
  %20 = call ptr @executeQuery(ptr noundef %16, ptr noundef %19)
  store ptr %20, ptr %4, align 8
  %21 = load ptr, ptr %4, align 8
  %22 = call i32 @PQfnumber(ptr noundef %21, ptr noundef @.str.182)
  store i32 %22, ptr %5, align 4
  %23 = load ptr, ptr %4, align 8
  %24 = call i32 @PQntuples(ptr noundef %23)
  %25 = icmp sgt i32 %24, 0
  br i1 %25, label %26, label %29

26:                                               ; preds = %15
  %27 = load ptr, ptr @OPF, align 8
  %28 = call i32 (ptr, ptr, ...) @pg_fprintf(ptr noundef %27, ptr noundef @.str.183)
  br label %29

29:                                               ; preds = %26, %15
  store i32 0, ptr %6, align 4
  br label %30

30:                                               ; preds = %47, %29
  %31 = load i32, ptr %6, align 4
  %32 = load ptr, ptr %4, align 8
  %33 = call i32 @PQntuples(ptr noundef %32)
  %34 = icmp slt i32 %31, %33
  br i1 %34, label %35, label %50

35:                                               ; preds = %30
  call void @llvm.lifetime.start.p0(i64 8, ptr %7) #11
  %36 = load ptr, ptr %4, align 8
  %37 = load i32, ptr %6, align 4
  %38 = load i32, ptr %5, align 4
  %39 = call ptr @PQgetvalue(ptr noundef %36, i32 noundef %37, i32 noundef %38)
  store ptr %39, ptr %7, align 8
  %40 = load ptr, ptr @OPF, align 8
  %41 = load i32, ptr @if_exists, align 4
  %42 = icmp ne i32 %41, 0
  %43 = select i1 %42, ptr @.str.185, ptr @.str.120
  %44 = load ptr, ptr %7, align 8
  %45 = call ptr @fmtId(ptr noundef %44)
  %46 = call i32 (ptr, ptr, ...) @pg_fprintf(ptr noundef %40, ptr noundef @.str.184, ptr noundef %43, ptr noundef %45)
  call void @llvm.lifetime.end.p0(i64 8, ptr %7) #11
  br label %47

47:                                               ; preds = %35
  %48 = load i32, ptr %6, align 4
  %49 = add i32 %48, 1
  store i32 %49, ptr %6, align 4
  br label %30, !llvm.loop !16

50:                                               ; preds = %30
  %51 = load ptr, ptr %4, align 8
  call void @PQclear(ptr noundef %51)
  %52 = load ptr, ptr %3, align 8
  call void @destroyPQExpBuffer(ptr noundef %52)
  %53 = load ptr, ptr @OPF, align 8
  %54 = call i32 (ptr, ptr, ...) @pg_fprintf(ptr noundef %53, ptr noundef @.str.186)
  call void @llvm.lifetime.end.p0(i64 4, ptr %6) #11
  call void @llvm.lifetime.end.p0(i64 4, ptr %5) #11
  call void @llvm.lifetime.end.p0(i64 8, ptr %4) #11
  call void @llvm.lifetime.end.p0(i64 8, ptr %3) #11
  ret void
}