; Function Attrs: nounwind uwtable
define internal fastcc void @dropRoles(ptr noundef nonnull %0) unnamed_addr #4 {
  %2 = tail call ptr @createPQExpBuffer() #15
  %3 = load i32, ptr @server_version, align 4
  %4 = icmp sgt i32 %3, 90599
  %.str.180..str.181 = select i1 %4, ptr @.str.180, ptr @.str.181
  tail call void (ptr, ptr, ...) @printfPQExpBuffer(ptr noundef %2, ptr noundef nonnull %.str.180..str.181, ptr noundef nonnull @role_catalog) #15
  %5 = load ptr, ptr %2, align 8
  %6 = tail call fastcc ptr @executeQuery(ptr noundef %0, ptr noundef %5)
  %7 = tail call i32 @PQfnumber(ptr noundef nonnull %6, ptr noundef nonnull @.str.182) #15
  %8 = tail call i32 @PQntuples(ptr noundef nonnull %6) #15
  %9 = icmp sgt i32 %8, 0
  br i1 %9, label %10, label %13

10:                                               ; preds = %1
  %11 = load ptr, ptr @OPF, align 8
  %12 = tail call i32 (ptr, ptr, ...) @pg_fprintf(ptr noundef %11, ptr noundef nonnull @.str.183) #15
  br label %13

13:                                               ; preds = %10, %1
  %14 = tail call i32 @PQntuples(ptr noundef nonnull %6) #15
  %15 = icmp sgt i32 %14, 0
  br i1 %15, label %.lr.ph, label %._crit_edge

.lr.ph:                                           ; preds = %13, %.lr.ph
  %.014 = phi i32 [ %22, %.lr.ph ], [ 0, %13 ]
  %16 = tail call ptr @PQgetvalue(ptr noundef nonnull %6, i32 noundef %.014, i32 noundef %7) #15
  %17 = load ptr, ptr @OPF, align 8
  %18 = load i32, ptr @if_exists, align 4
  %.not = icmp eq i32 %18, 0
  %19 = select i1 %.not, ptr @.str.120, ptr @.str.185
  %20 = tail call ptr @fmtId(ptr noundef %16) #15
  %21 = tail call i32 (ptr, ptr, ...) @pg_fprintf(ptr noundef %17, ptr noundef nonnull @.str.184, ptr noundef nonnull %19, ptr noundef %20) #15
  %22 = add nuw nsw i32 %.014, 1
  %23 = tail call i32 @PQntuples(ptr noundef nonnull %6) #15
  %24 = icmp slt i32 %22, %23
  br i1 %24, label %.lr.ph, label %._crit_edge, !llvm.loop !14

._crit_edge:                                      ; preds = %.lr.ph, %13
  tail call void @PQclear(ptr noundef nonnull %6) #15
  tail call void @destroyPQExpBuffer(ptr noundef nonnull %2) #15
  %25 = load ptr, ptr @OPF, align 8
  %26 = tail call i32 (ptr, ptr, ...) @pg_fprintf(ptr noundef %25, ptr noundef nonnull @.str.186) #15
  ret void
}